; Function Attrs: nounwind uwtable
define i32 @ossl_dsa_check_priv_key(ptr noundef readonly captures(none) %0, ptr noundef %1, ptr noundef initializes((0, 4)) %2) local_unnamed_addr #0 {
  store i32 0, ptr %2, align 4, !tbaa !22
  %4 = tail call fastcc i32 @dsa_precheck_params(ptr noundef %0, ptr noundef nonnull %2)
  %.not = icmp eq i32 %4, 0
  br i1 %.not, label %9, label %5

5:                                                ; preds = %3
  %6 = getelementptr inbounds nuw i8, ptr %0, i64 16
  %7 = load ptr, ptr %6, align 8, !tbaa !21
  %8 = tail call i32 @ossl_ffc_validate_private_key(ptr noundef %7, ptr noundef %1, ptr noundef nonnull %2) #2
  br label %9

9:                                                ; preds = %3, %5
  %.0 = phi i32 [ %8, %5 ], [ 0, %3 ]
  ret i32 %.0
}